target datalayout = "e-m:e-p270:32:32-p271:32:32-p272:64:64-i64:64-i128:128-f80:128-n8:16:32:64-S128"
target triple = "x86_64-pc-linux-gnu"

; Function Attrs: nounwind uwtable
define dso_local i32 @jvp_codepoint_is_whitespace(i32 noundef %0) #0 {
  %2 = alloca i32, align 4
  store i32 %0, ptr %2, align 4, !tbaa !11
  %3 = load i32, ptr %2, align 4, !tbaa !11
  %4 = icmp sge i32 %3, 9
  br i1 %4, label %5, label %8

5:                                                ; preds = %1
  %6 = load i32, ptr %2, align 4, !tbaa !11
  %7 = icmp sle i32 %6, 13
  br i1 %7, label %41, label %8

8:                                                ; preds = %5, %1
  %9 = load i32, ptr %2, align 4, !tbaa !11
  %10 = icmp eq i32 %9, 32
  br i1 %10, label %41, label %11

11:                                               ; preds = %8
  %12 = load i32, ptr %2, align 4, !tbaa !11
  %13 = icmp eq i32 %12, 133
  br i1 %13, label %41, label %14

14:                                               ; preds = %11
  %15 = load i32, ptr %2, align 4, !tbaa !11
  %16 = icmp eq i32 %15, 160
  br i1 %16, label %41, label %17

17:                                               ; preds = %14
  %18 = load i32, ptr %2, align 4, !tbaa !11
  %19 = icmp eq i32 %18, 5760
  br i1 %19, label %41, label %20

20:                                               ; preds = %17
  %21 = load i32, ptr %2, align 4, !tbaa !11
  %22 = icmp sge i32 %21, 8192
  br i1 %22, label %23, label %26

23:                                               ; preds = %20
  %24 = load i32, ptr %2, align 4, !tbaa !11
  %25 = icmp sle i32 %24, 8202
  br i1 %25, label %41, label %26

26:                                               ; preds = %23, %20
  %27 = load i32, ptr %2, align 4, !tbaa !11
  %28 = icmp eq i32 %27, 8232
  br i1 %28, label %41, label %29

29:                                               ; preds = %26
  %30 = load i32, ptr %2, align 4, !tbaa !11
  %31 = icmp eq i32 %30, 8233
  br i1 %31, label %41, label %32

32:                                               ; preds = %29
  %33 = load i32, ptr %2, align 4, !tbaa !11
  %34 = icmp eq i32 %33, 8239
  br i1 %34, label %41, label %35

35:                                               ; preds = %32
  %36 = load i32, ptr %2, align 4, !tbaa !11
  %37 = icmp eq i32 %36, 8287
  br i1 %37, label %41, label %38

38:                                               ; preds = %35
  %39 = load i32, ptr %2, align 4, !tbaa !11
  %40 = icmp eq i32 %39, 12288
  br label %41

41:                                               ; preds = %38, %35, %32, %29, %26, %23, %17, %14, %11, %8, %5
  %42 = phi i1 [ true, %35 ], [ true, %32 ], [ true, %29 ], [ true, %26 ], [ true, %23 ], [ true, %17 ], [ true, %14 ], [ true, %11 ], [ true, %8 ], [ true, %5 ], [ %40, %38 ]
  %43 = zext i1 %42 to i32
  ret i32 %43
}