; Function Attrs: mustprogress nofree norecurse nosync nounwind willreturn memory(none) uwtable
define dso_local range(i32 0, 2) i32 @jvp_codepoint_is_whitespace(i32 noundef %0) local_unnamed_addr #2 {
  switch i32 %0, label %2 [
    i32 5760, label %7
    i32 160, label %7
    i32 133, label %7
    i32 32, label %7
    i32 13, label %7
    i32 12, label %7
    i32 11, label %7
    i32 10, label %7
    i32 9, label %7
  ]

2:                                                ; preds = %1
  %3 = add i32 %0, -8192
  %or.cond11 = icmp ult i32 %3, 11
  br i1 %or.cond11, label %7, label %switch.early.test

switch.early.test:                                ; preds = %2
  switch i32 %0, label %4 [
    i32 8287, label %7
    i32 8239, label %7
    i32 8233, label %7
    i32 8232, label %7
  ]

4:                                                ; preds = %switch.early.test
  %5 = icmp eq i32 %0, 12288
  %6 = zext i1 %5 to i32
  br label %7

7:                                                ; preds = %switch.early.test, %switch.early.test, %switch.early.test, %switch.early.test, %2, %1, %1, %1, %1, %1, %1, %1, %1, %1, %4
  %8 = phi i32 [ %6, %4 ], [ 1, %1 ], [ 1, %switch.early.test ], [ 1, %1 ], [ 1, %1 ], [ 1, %1 ], [ 1, %1 ], [ 1, %1 ], [ 1, %1 ], [ 1, %1 ], [ 1, %1 ], [ 1, %2 ], [ 1, %switch.early.test ], [ 1, %switch.early.test ], [ 1, %switch.early.test ]
  ret i32 %8
}